target datalayout = "e-m:e-p270:32:32-p271:32:32-p272:64:64-i64:64-i128:128-f80:128-n8:16:32:64-S128"
target triple = "x86_64-pc-linux-gnu"

%"class.cv::ppf_match_3d::Pose3D" = type { ptr, double, double, i64, i64, %"class.cv::Matx.0", double, %"class.cv::Vec", %"class.cv::Vec.2" }
%"class.cv::Matx.0" = type { [16 x double] }
%"class.cv::Vec" = type { %"class.cv::Matx.1" }
%"class.cv::Matx.1" = type { [3 x double] }
%"class.cv::Vec.2" = type { %"class.cv::Matx.3" }
%"class.cv::Matx.3" = type { [4 x double] }

; Function Attrs: mustprogress uwtable
define noundef i32 @_ZN2cv12ppf_match_3d6Pose3D9writePoseEP8_IO_FILE(ptr noundef nonnull align 8 dereferenceable(232) %0, ptr noundef %1) #4 align 2 {
  %3 = alloca ptr, align 8
  %4 = alloca ptr, align 8
  %5 = alloca i32, align 4
  store ptr %0, ptr %3, align 8, !tbaa !3
  store ptr %1, ptr %4, align 8, !tbaa !48
  %6 = load ptr, ptr %3, align 8
  call void @llvm.lifetime.start.p0(i64 4, ptr %5) #3
  store i32 7673, ptr %5, align 4, !tbaa !22
  %7 = load ptr, ptr %4, align 8, !tbaa !48
  %8 = call i64 @fwrite(ptr noundef %5, i64 noundef 4, i64 noundef 1, ptr noundef %7)
  %9 = getelementptr inbounds nuw %"class.cv::ppf_match_3d::Pose3D", ptr %6, i32 0, i32 6
  %10 = load ptr, ptr %4, align 8, !tbaa !48
  %11 = call i64 @fwrite(ptr noundef %9, i64 noundef 8, i64 noundef 1, ptr noundef %10)
  %12 = getelementptr inbounds nuw %"class.cv::ppf_match_3d::Pose3D", ptr %6, i32 0, i32 4
  %13 = load ptr, ptr %4, align 8, !tbaa !48
  %14 = call i64 @fwrite(ptr noundef %12, i64 noundef 4, i64 noundef 1, ptr noundef %13)
  %15 = getelementptr inbounds nuw %"class.cv::ppf_match_3d::Pose3D", ptr %6, i32 0, i32 3
  %16 = load ptr, ptr %4, align 8, !tbaa !48
  %17 = call i64 @fwrite(ptr noundef %15, i64 noundef 4, i64 noundef 1, ptr noundef %16)
  %18 = getelementptr inbounds nuw %"class.cv::ppf_match_3d::Pose3D", ptr %6, i32 0, i32 5
  %19 = getelementptr inbounds nuw %"class.cv::Matx.0", ptr %18, i32 0, i32 0
  %20 = getelementptr inbounds [16 x double], ptr %19, i64 0, i64 0
  %21 = load ptr, ptr %4, align 8, !tbaa !48
  %22 = call i64 @fwrite(ptr noundef %20, i64 noundef 128, i64 noundef 1, ptr noundef %21)
  %23 = getelementptr inbounds nuw %"class.cv::ppf_match_3d::Pose3D", ptr %6, i32 0, i32 7
  %24 = getelementptr inbounds nuw %"class.cv::Matx.1", ptr %23, i32 0, i32 0
  %25 = getelementptr inbounds [3 x double], ptr %24, i64 0, i64 0
  %26 = load ptr, ptr %4, align 8, !tbaa !48
  %27 = call i64 @fwrite(ptr noundef %25, i64 noundef 24, i64 noundef 1, ptr noundef %26)
  %28 = getelementptr inbounds nuw %"class.cv::ppf_match_3d::Pose3D", ptr %6, i32 0, i32 8
  %29 = getelementptr inbounds nuw %"class.cv::Matx.3", ptr %28, i32 0, i32 0
  %30 = getelementptr inbounds [4 x double], ptr %29, i64 0, i64 0
  %31 = load ptr, ptr %4, align 8, !tbaa !48
  %32 = call i64 @fwrite(ptr noundef %30, i64 noundef 32, i64 noundef 1, ptr noundef %31)
  %33 = getelementptr inbounds nuw %"class.cv::ppf_match_3d::Pose3D", ptr %6, i32 0, i32 2
  %34 = load ptr, ptr %4, align 8, !tbaa !48
  %35 = call i64 @fwrite(ptr noundef %33, i64 noundef 8, i64 noundef 1, ptr noundef %34)
  call void @llvm.lifetime.end.p0(i64 4, ptr %5) #3
  ret i32 0
}