; Function Attrs: mustprogress nofree nounwind uwtable
define noundef i32 @_ZN2cv12ppf_match_3d6Pose3D9writePoseEP8_IO_FILE(ptr noundef nonnull align 8 captures(none) dereferenceable(232) %0, ptr noundef captures(none) %1) local_unnamed_addr #13 align 2 {
  %3 = alloca i32, align 4
  call void @llvm.lifetime.start.p0(i64 4, ptr nonnull %3) #26
  store i32 7673, ptr %3, align 4, !tbaa !11
  %4 = call i64 @fwrite(ptr noundef nonnull %3, i64 noundef 4, i64 noundef 1, ptr noundef %1)
  %5 = getelementptr inbounds nuw i8, ptr %0, i64 168
  %6 = tail call i64 @fwrite(ptr noundef nonnull %5, i64 noundef 8, i64 noundef 1, ptr noundef %1)
  %7 = getelementptr inbounds nuw i8, ptr %0, i64 32
  %8 = tail call i64 @fwrite(ptr noundef nonnull %7, i64 noundef 4, i64 noundef 1, ptr noundef %1)
  %9 = getelementptr inbounds nuw i8, ptr %0, i64 24
  %10 = tail call i64 @fwrite(ptr noundef nonnull %9, i64 noundef 4, i64 noundef 1, ptr noundef %1)
  %11 = getelementptr inbounds nuw i8, ptr %0, i64 40
  %12 = tail call i64 @fwrite(ptr noundef nonnull %11, i64 noundef 128, i64 noundef 1, ptr noundef %1)
  %13 = getelementptr inbounds nuw i8, ptr %0, i64 176
  %14 = tail call i64 @fwrite(ptr noundef nonnull %13, i64 noundef 24, i64 noundef 1, ptr noundef %1)
  %15 = getelementptr inbounds nuw i8, ptr %0, i64 200
  %16 = tail call i64 @fwrite(ptr noundef nonnull %15, i64 noundef 32, i64 noundef 1, ptr noundef %1)
  %17 = getelementptr inbounds nuw i8, ptr %0, i64 16
  %18 = tail call i64 @fwrite(ptr noundef nonnull %17, i64 noundef 8, i64 noundef 1, ptr noundef %1)
  call void @llvm.lifetime.end.p0(i64 4, ptr nonnull %3) #26
  ret i32 0
}